Certificate:
    Data:
        Version: 3 (0x2)
        Serial Number: 1 (0x1)
        Signature Algorithm: ecdsa-with-SHA256
        Issuer: C=UK, ST=Cambs, L=Cambridge, O=Labs, OU=CyberSec, CN=local
        Validity
            Not Before: May  3 00:17:08 2022 GMT
            Not After : May  3 00:17:08 2023 GMT
        Subject: C=UK, ST=Cambs, O=Labs, OU=CyberSec, CN=server
        Subject Public Key Info:
            Public Key Algorithm: id-ecPublicKey
                Public-Key: (256 bit)
                pub:
                    04:20:47:18:1a:7d:43:5e:88:26:0b:44:7c:ff:25:
                    5c:c3:c0:1e:d8:dc:8f:43:b4:0e:69:c2:c4:63:ee:
                    8f:41:3c:c5:35:e9:d5:76:ce:bd:5d:34:82:b0:58:
                    e2:a0:19:dd:a8:0f:0a:36:9f:31:5f:a8:15:18:36:
                    37:48:de:58:65
                ASN1 OID: prime256v1
                NIST CURVE: P-256
        X509v3 extensions:
            X509v3 Basic Constraints: 
                CA:FALSE
            Netscape Comment: 
                OpenSSL Generated Certificate
            X509v3 Subject Key Identifier: 
                D1:E8:FB:2F:41:96:6E:1D:C9:48:0F:56:6B:80:9C:97:D4:49:C8:DB
            X509v3 Authority Key Identifier: 
                keyid:E2:B9:21:D4:18:5F:B9:47:CB:BD:32:04:48:1B:55:85:E5:90:A1:F4

    Signature Algorithm: ecdsa-with-SHA256
         30:45:02:20:5c:80:5b:5e:57:96:dd:6a:67:f2:a1:97:c4:7e:
         c2:5f:3d:24:56:a5:b9:e8:4b:a6:fa:cd:d5:92:9b:f9:1c:ee:
         02:21:00:d3:50:22:32:8b:82:46:80:02:f2:6a:7d:f8:b1:29:
         69:ef:93:3a:9f:7f:42:ed:a2:13:9a:bc:87:ed:2e:a2:65
-----BEGIN CERTIFICATE-----
MIICHTCCAcOgAwIBAgIBATAKBggqhkjOPQQDAjBjMQswCQYDVQQGEwJVSzEOMAwG
A1UECAwFQ2FtYnMxEjAQBgNVBAcMCUNhbWJyaWRnZTENMAsGA1UECgwETGFiczER
MA8GA1UECwwIQ3liZXJTZWMxDjAMBgNVBAMMBWxvY2FsMB4XDTIyMDUwMzAwMTcw
OFoXDTIzMDUwMzAwMTcwOFowUDELMAkGA1UEBhMCVUsxDjAMBgNVBAgMBUNhbWJz
MQ0wCwYDVQQKDARMYWJzMREwDwYDVQQLDAhDeWJlclNlYzEPMA0GA1UEAwwGc2Vy
dmVyMFkwEwYHKoZIzj0CAQYIKoZIzj0DAQcDQgAEIEcYGn1DXogmC0R8/yVcw8Ae
2NyPQ7QOacLEY+6PQTzFNenVds69XTSCsFjioBndqA8KNp8xX6gVGDY3SN5YZaN7
MHkwCQYDVR0TBAIwADAsBglghkgBhvhCAQ0EHxYdT3BlblNTTCBHZW5lcmF0ZWQg
Q2VydGlmaWNhdGUwHQYDVR0OBBYEFNHo+y9Blm4dyUgPVmuAnJfUScjbMB8GA1Ud
IwQYMBaAFOK5IdQYX7lHy70yBEgbVYXlkKH0MAoGCCqGSM49BAMCA0gAMEUCIFyA
W15Xlt1qZ/Khl8R+wl89JFaluehLpvrN1ZKb+RzuAiEA01AiMouCRoAC8mp9+LEp
ae+TOp9/Qu2iE5q8h+0uomU=
-----END CERTIFICATE-----
