Certificate:
    Data:
        Version: 1 (0x0)
        Serial Number: 1 (0x1)
        Signature Algorithm: ecdsa-with-SHA256
        Issuer: C=UK, ST=Cambs, L=Cambridge, O=Labs, OU=CyberSec, CN=ca.ubuntu
        Validity
            Not Before: Apr 26 08:28:18 2022 GMT
            Not After : Apr 26 08:28:18 2023 GMT
        Subject: C=UK, ST=Cambs, O=Labs, OU=CyberSec, CN=server.ubuntu
        Subject Public Key Info:
            Public Key Algorithm: id-ecPublicKey
                Public-Key: (256 bit)
                pub:
                    04:78:01:9c:44:e7:9b:f6:46:a1:14:ea:09:72:2a:
                    ed:91:55:67:7f:7d:54:29:ff:69:79:2d:e0:ce:39:
                    42:a7:19:c5:6a:73:5b:3b:33:bb:b5:2d:63:c5:d3:
                    79:c6:a2:22:f2:d7:46:9a:8f:ce:c9:a8:5c:6c:ec:
                    50:0b:99:2e:78
                ASN1 OID: prime256v1
                NIST CURVE: P-256
    Signature Algorithm: ecdsa-with-SHA256
         30:45:02:21:00:ce:24:04:d3:3e:a7:16:28:1e:db:c7:e7:20:
         a5:66:25:ee:01:34:7e:37:f7:d4:b6:f1:c3:ef:3e:38:eb:16:
         12:02:20:78:64:d4:10:7a:3d:93:ff:75:d3:5b:0b:b4:0e:48:
         4b:cd:1c:e0:94:84:cf:ad:78:a5:f2:7c:31:45:c9:ce:ce
-----BEGIN CERTIFICATE-----
MIIBpjCCAUwCAQEwCgYIKoZIzj0EAwIwZzELMAkGA1UEBhMCVUsxDjAMBgNVBAgM
BUNhbWJzMRIwEAYDVQQHDAlDYW1icmlkZ2UxDTALBgNVBAoMBExhYnMxETAPBgNV
BAsMCEN5YmVyU2VjMRIwEAYDVQQDDAljYS51YnVudHUwHhcNMjIwNDI2MDgyODE4
WhcNMjMwNDI2MDgyODE4WjBXMQswCQYDVQQGEwJVSzEOMAwGA1UECAwFQ2FtYnMx
DTALBgNVBAoMBExhYnMxETAPBgNVBAsMCEN5YmVyU2VjMRYwFAYDVQQDDA1zZXJ2
ZXIudWJ1bnR1MFkwEwYHKoZIzj0CAQYIKoZIzj0DAQcDQgAEeAGcROeb9kahFOoJ
cirtkVVnf31UKf9peS3gzjlCpxnFanNbOzO7tS1jxdN5xqIi8tdGmo/OyahcbOxQ
C5kueDAKBggqhkjOPQQDAgNIADBFAiEAziQE0z6nFige28fnIKVmJe4BNH4399S2
8cPvPjjrFhICIHhk1BB6PZP/ddNbC7QOSEvNHOCUhM+teKXyfDFFyc7O
-----END CERTIFICATE-----
