Certificate:
    Data:
        Version: 1 (0x0)
        Serial Number: 2 (0x2)
        Signature Algorithm: ecdsa-with-SHA256
        Issuer: C=UK, ST=Cambs, L=Cambridge, O=Labs, OU=CyberSec, CN=ca.ubuntu
        Validity
            Not Before: Apr 26 08:29:45 2022 GMT
            Not After : Apr 26 08:29:45 2023 GMT
        Subject: C=UK, ST=Cambs, O=Labs, OU=CyberSec, CN=client.ubuntu
        Subject Public Key Info:
            Public Key Algorithm: id-ecPublicKey
                Public-Key: (256 bit)
                pub:
                    04:b0:63:21:de:31:cd:1c:e8:cd:66:89:5e:5e:bd:
                    f7:f9:63:3d:34:d3:ba:f4:89:de:ea:db:b1:c9:17:
                    56:69:5e:36:22:d8:f9:9f:09:c0:05:4d:fe:a1:d9:
                    b7:24:05:c4:fa:5f:aa:b6:20:0e:8b:7e:ad:35:92:
                    57:6b:c7:e4:01
                ASN1 OID: prime256v1
                NIST CURVE: P-256
    Signature Algorithm: ecdsa-with-SHA256
         30:45:02:20:3f:89:3d:67:c9:f0:4e:86:25:00:26:52:5c:a9:
         45:6e:09:05:ba:4c:63:10:a5:a2:77:19:ec:fb:03:4f:25:38:
         02:21:00:f5:55:36:19:eb:fe:a1:e8:98:12:54:d0:91:20:70:
         c7:09:55:12:94:c2:1e:c4:a0:64:74:33:f1:9c:fc:c6:94
-----BEGIN CERTIFICATE-----
MIIBpjCCAUwCAQIwCgYIKoZIzj0EAwIwZzELMAkGA1UEBhMCVUsxDjAMBgNVBAgM
BUNhbWJzMRIwEAYDVQQHDAlDYW1icmlkZ2UxDTALBgNVBAoMBExhYnMxETAPBgNV
BAsMCEN5YmVyU2VjMRIwEAYDVQQDDAljYS51YnVudHUwHhcNMjIwNDI2MDgyOTQ1
WhcNMjMwNDI2MDgyOTQ1WjBXMQswCQYDVQQGEwJVSzEOMAwGA1UECAwFQ2FtYnMx
DTALBgNVBAoMBExhYnMxETAPBgNVBAsMCEN5YmVyU2VjMRYwFAYDVQQDDA1jbGll
bnQudWJ1bnR1MFkwEwYHKoZIzj0CAQYIKoZIzj0DAQcDQgAEsGMh3jHNHOjNZole
Xr33+WM9NNO69Ine6tuxyRdWaV42Itj5nwnABU3+odm3JAXE+l+qtiAOi36tNZJX
a8fkATAKBggqhkjOPQQDAgNIADBFAiA/iT1nyfBOhiUAJlJcqUVuCQW6TGMQpaJ3
Gez7A08lOAIhAPVVNhnr/qHomBJU0JEgcMcJVRKUwh7EoGR0M/Gc/MaU
-----END CERTIFICATE-----
