Certificate:
    Data:
        Version: 1 (0x0)
        Serial Number: 1 (0x1)
        Signature Algorithm: ecdsa-with-SHA256
        Issuer: C=UK, ST=Cambs, L=Cambridge, O=Labs, OU=CyberSec, CN=ca.ubuntu
        Validity
            Not Before: Apr 24 21:36:47 2022 GMT
            Not After : Apr 24 21:36:47 2023 GMT
        Subject: C=UK, ST=Cambs, O=Labs, OU=CyberSec, CN=server.ubuntu
        Subject Public Key Info:
            Public Key Algorithm: id-ecPublicKey
                Public-Key: (256 bit)
                pub:
                    04:86:8c:fc:02:f1:92:cc:2e:43:cd:98:1b:62:fc:
                    4c:59:7d:79:e7:39:bb:c8:6f:74:4d:f6:63:91:3a:
                    93:03:65:4f:a4:27:38:86:89:a4:52:4c:2e:eb:99:
                    50:bd:52:ab:8c:99:6f:62:4d:b4:20:59:5c:d2:22:
                    26:7d:89:e6:d3
                ASN1 OID: prime256v1
                NIST CURVE: P-256
    Signature Algorithm: ecdsa-with-SHA256
         30:46:02:21:00:a0:89:fe:fc:88:a6:a1:80:c9:72:c0:8c:e9:
         16:7d:4f:42:be:90:7a:92:f1:4f:21:25:4e:ad:be:62:1e:04:
         6f:02:21:00:bc:e2:d5:eb:b8:fa:a1:b9:7f:23:e9:11:70:c1:
         8f:0c:dc:00:52:00:02:60:fe:35:e6:1a:1f:db:bc:ca:3e:2c
-----BEGIN CERTIFICATE-----
MIIBpzCCAUwCAQEwCgYIKoZIzj0EAwIwZzELMAkGA1UEBhMCVUsxDjAMBgNVBAgM
BUNhbWJzMRIwEAYDVQQHDAlDYW1icmlkZ2UxDTALBgNVBAoMBExhYnMxETAPBgNV
BAsMCEN5YmVyU2VjMRIwEAYDVQQDDAljYS51YnVudHUwHhcNMjIwNDI0MjEzNjQ3
WhcNMjMwNDI0MjEzNjQ3WjBXMQswCQYDVQQGEwJVSzEOMAwGA1UECAwFQ2FtYnMx
DTALBgNVBAoMBExhYnMxETAPBgNVBAsMCEN5YmVyU2VjMRYwFAYDVQQDDA1zZXJ2
ZXIudWJ1bnR1MFkwEwYHKoZIzj0CAQYIKoZIzj0DAQcDQgAEhoz8AvGSzC5DzZgb
YvxMWX155zm7yG90TfZjkTqTA2VPpCc4homkUkwu65lQvVKrjJlvYk20IFlc0iIm
fYnm0zAKBggqhkjOPQQDAgNJADBGAiEAoIn+/IimoYDJcsCM6RZ9T0K+kHqS8U8h
JU6tvmIeBG8CIQC84tXruPqhuX8j6RFwwY8M3ABSAAJg/jXmGh/bvMo+LA==
-----END CERTIFICATE-----
